target datalayout = "e-m:e-p270:32:32-p271:32:32-p272:64:64-i64:64-i128:128-f80:128-n8:16:32:64-S128"
target triple = "x86_64-pc-linux-gnu"

%struct.OSQPCscMatrix = type { i64, i64, ptr, ptr, ptr, i64, i64 }

; Function Attrs: nounwind uwtable
define void @csc_scale(ptr noundef %0, double noundef %1) #0 {
  %3 = alloca ptr, align 8
  %4 = alloca double, align 8
  %5 = alloca i64, align 8
  %6 = alloca i64, align 8
  store ptr %0, ptr %3, align 8, !tbaa !16
  store double %1, ptr %4, align 8, !tbaa !8
  call void @llvm.lifetime.start.p0(i64 8, ptr %5) #3
  call void @llvm.lifetime.start.p0(i64 8, ptr %6) #3
  %7 = load ptr, ptr %3, align 8, !tbaa !16
  %8 = getelementptr inbounds nuw %struct.OSQPCscMatrix, ptr %7, i32 0, i32 2
  %9 = load ptr, ptr %8, align 8, !tbaa !23
  %10 = load ptr, ptr %3, align 8, !tbaa !16
  %11 = getelementptr inbounds nuw %struct.OSQPCscMatrix, ptr %10, i32 0, i32 1
  %12 = load i64, ptr %11, align 8, !tbaa !24
  %13 = getelementptr inbounds i64, ptr %9, i64 %12
  %14 = load i64, ptr %13, align 8, !tbaa !10
  store i64 %14, ptr %6, align 8, !tbaa !10
  store i64 0, ptr %5, align 8, !tbaa !10
  br label %15

15:                                               ; preds = %28, %2
  %16 = load i64, ptr %5, align 8, !tbaa !10
  %17 = load i64, ptr %6, align 8, !tbaa !10
  %18 = icmp slt i64 %16, %17
  br i1 %18, label %19, label %31

19:                                               ; preds = %15
  %20 = load double, ptr %4, align 8, !tbaa !8
  %21 = load ptr, ptr %3, align 8, !tbaa !16
  %22 = getelementptr inbounds nuw %struct.OSQPCscMatrix, ptr %21, i32 0, i32 4
  %23 = load ptr, ptr %22, align 8, !tbaa !19
  %24 = load i64, ptr %5, align 8, !tbaa !10
  %25 = getelementptr inbounds double, ptr %23, i64 %24
  %26 = load double, ptr %25, align 8, !tbaa !8
  %27 = fmul double %26, %20
  store double %27, ptr %25, align 8, !tbaa !8
  br label %28

28:                                               ; preds = %19
  %29 = load i64, ptr %5, align 8, !tbaa !10
  %30 = add nsw i64 %29, 1
  store i64 %30, ptr %5, align 8, !tbaa !10
  br label %15, !llvm.loop !25

31:                                               ; preds = %15
  call void @llvm.lifetime.end.p0(i64 8, ptr %6) #3
  call void @llvm.lifetime.end.p0(i64 8, ptr %5) #3
  ret void
}