; Function Attrs: nofree norecurse nosync nounwind memory(readwrite, inaccessiblemem: none) uwtable
define void @csc_scale(ptr noundef readonly captures(none) %0, double noundef %1) local_unnamed_addr #3 {
  %3 = getelementptr inbounds nuw i8, ptr %0, i64 16
  %4 = load ptr, ptr %3, align 8, !tbaa !20
  %5 = getelementptr inbounds nuw i8, ptr %0, i64 8
  %6 = load i64, ptr %5, align 8, !tbaa !21
  %7 = getelementptr inbounds i64, ptr %4, i64 %6
  %8 = load i64, ptr %7, align 8, !tbaa !17
  %9 = icmp sgt i64 %8, 0
  br i1 %9, label %.lr.ph, label %._crit_edge

.lr.ph:                                           ; preds = %2
  %10 = getelementptr inbounds nuw i8, ptr %0, i64 32
  %11 = load ptr, ptr %10, align 8, !tbaa !11
  br label %12

12:                                               ; preds = %.lr.ph, %12
  %.07 = phi i64 [ 0, %.lr.ph ], [ %16, %12 ]
  %13 = getelementptr inbounds nuw double, ptr %11, i64 %.07
  %14 = load double, ptr %13, align 8, !tbaa !3
  %15 = fmul double %1, %14
  store double %15, ptr %13, align 8, !tbaa !3
  %16 = add nuw nsw i64 %.07, 1
  %exitcond.not = icmp eq i64 %16, %8
  br i1 %exitcond.not, label %._crit_edge, label %12, !llvm.loop !22

._crit_edge:                                      ; preds = %12, %2
  ret void
}